	.section	__TEXT,__text,regular,pure_instructions
	.macosx_version_min 10, 12
	.file	1 "/Applications/Xcode.app/Contents/Developer/Platforms/MacOSX.platform/Developer/SDKs/MacOSX10.12.sdk/usr/include/i386" "_types.h"
	.file	2 "/Applications/Xcode.app/Contents/Developer/Platforms/MacOSX.platform/Developer/SDKs/MacOSX10.12.sdk/usr/include/sys/_types" "_size_t.h"
	.file	3 "ParallelSum.c"
	.globl	_worker
	.align	4, 0x90
_worker:                                ## @worker
Lfunc_begin0:
	.loc	3 16 0                  ## ParallelSum.c:16:0
	.cfi_startproc
## BB#0:
	pushq	%rbp
Ltmp0:
	.cfi_def_cfa_offset 16
Ltmp1:
	.cfi_offset %rbp, -16
	movq	%rsp, %rbp
Ltmp2:
	.cfi_def_cfa_register %rbp
	movq	%rdi, -8(%rbp)
	.loc	3 17 38 prologue_end    ## ParallelSum.c:17:38
Ltmp3:
	movq	-8(%rbp), %rdi
	.loc	3 17 15 is_stmt 0       ## ParallelSum.c:17:15
	movq	%rdi, -16(%rbp)
	.loc	3 18 23 is_stmt 1       ## ParallelSum.c:18:23
	movq	-16(%rbp), %rdi
	.loc	3 18 33 is_stmt 0       ## ParallelSum.c:18:33
	imulq	$12500000, (%rdi), %rdi ## imm = 0xBEBC20
	.loc	3 18 15                 ## ParallelSum.c:18:15
	movq	%rdi, -24(%rbp)
	.loc	3 19 21 is_stmt 1       ## ParallelSum.c:19:21
	movq	-16(%rbp), %rdi
	.loc	3 19 31 is_stmt 0       ## ParallelSum.c:19:31
	cmpq	$7, (%rdi)
	.loc	3 19 21                 ## ParallelSum.c:19:21
	jne	LBB0_2
## BB#1:
	movl	$100000000, %eax        ## imm = 0x5F5E100
	movl	%eax, %ecx
	movq	%rcx, -48(%rbp)         ## 8-byte Spill
	jmp	LBB0_3
LBB0_2:
	.loc	3 19 59                 ## ParallelSum.c:19:59
	movq	-16(%rbp), %rax
	.loc	3 19 66                 ## ParallelSum.c:19:66
	movq	(%rax), %rax
	.loc	3 19 69                 ## ParallelSum.c:19:69
	addq	$1, %rax
	.loc	3 19 74                 ## ParallelSum.c:19:74
	imulq	$12500000, %rax, %rax   ## imm = 0xBEBC20
	movq	%rax, -48(%rbp)         ## 8-byte Spill
LBB0_3:
	.loc	3 19 21                 ## ParallelSum.c:19:21
	movq	-48(%rbp), %rax         ## 8-byte Reload
	.loc	3 19 15                 ## ParallelSum.c:19:15
	movq	%rax, -32(%rbp)
	.loc	3 21 18 is_stmt 1       ## ParallelSum.c:21:18
Ltmp4:
	movq	-24(%rbp), %rax
	.loc	3 21 14 is_stmt 0       ## ParallelSum.c:21:14
	movq	%rax, -40(%rbp)
LBB0_4:                                 ## =>This Inner Loop Header: Depth=1
	.loc	3 21 25                 ## ParallelSum.c:21:25
Ltmp5:
	movq	-40(%rbp), %rax
	.loc	3 21 27                 ## ParallelSum.c:21:27
	cmpq	-32(%rbp), %rax
Ltmp6:
	.loc	3 21 2                  ## ParallelSum.c:21:2
	jae	LBB0_7
## BB#5:                                ##   in Loop: Header=BB0_4 Depth=1
	.loc	3 22 33 is_stmt 1       ## ParallelSum.c:22:33
Ltmp7:
	movq	-40(%rbp), %rax
	.loc	3 22 20 is_stmt 0       ## ParallelSum.c:22:20
	movq	-16(%rbp), %rcx
	.loc	3 22 27                 ## ParallelSum.c:22:27
	movq	8(%rcx), %rcx
	.loc	3 22 20                 ## ParallelSum.c:22:20
	movq	(%rcx,%rax,8), %rax
	.loc	3 22 3                  ## ParallelSum.c:22:3
	movq	-16(%rbp), %rcx
	.loc	3 22 17                 ## ParallelSum.c:22:17
	addq	16(%rcx), %rax
	movq	%rax, 16(%rcx)
Ltmp8:
## BB#6:                                ##   in Loop: Header=BB0_4 Depth=1
	.loc	3 21 35 is_stmt 1       ## ParallelSum.c:21:35
	movq	-40(%rbp), %rax
	addq	$1, %rax
	movq	%rax, -40(%rbp)
	.loc	3 21 2 is_stmt 0        ## ParallelSum.c:21:2
	jmp	LBB0_4
Ltmp9:
LBB0_7:
	xorl	%eax, %eax
                                        ## 
	.loc	3 24 2 is_stmt 1        ## ParallelSum.c:24:2
	popq	%rbp
	retq
Ltmp10:
Lfunc_end0:
	.cfi_endproc

	.globl	_main
	.align	4, 0x90
_main:                                  ## @main
Lfunc_begin1:
	.loc	3 28 0                  ## ParallelSum.c:28:0
	.cfi_startproc
## BB#0:
	pushq	%rbp
Ltmp11:
	.cfi_def_cfa_offset 16
Ltmp12:
	.cfi_offset %rbp, -16
	movq	%rsp, %rbp
Ltmp13:
	.cfi_def_cfa_register %rbp
	subq	$208, %rsp
	movl	$800000000, %eax        ## imm = 0x2FAF0800
	movl	%eax, %edi
	movq	___stack_chk_guard@GOTPCREL(%rip), %rcx
	movq	(%rcx), %rcx
	movq	%rcx, -8(%rbp)
	movl	$0, -84(%rbp)
	.loc	3 29 18 prologue_end    ## ParallelSum.c:29:18
Ltmp14:
	callq	_malloc
	.loc	3 29 8 is_stmt 0        ## ParallelSum.c:29:8
	movq	%rax, -96(%rbp)
	.loc	3 30 14 is_stmt 1       ## ParallelSum.c:30:14
Ltmp15:
	movq	$0, -104(%rbp)
LBB1_1:                                 ## =>This Inner Loop Header: Depth=1
	.loc	3 30 23 is_stmt 0       ## ParallelSum.c:30:23
Ltmp16:
	cmpq	$100000000, -104(%rbp)  ## imm = 0x5F5E100
Ltmp17:
	.loc	3 30 2                  ## ParallelSum.c:30:2
	jae	LBB1_4
## BB#2:                                ##   in Loop: Header=BB1_1 Depth=1
	.loc	3 31 22 is_stmt 1       ## ParallelSum.c:31:22
Ltmp18:
	movq	-104(%rbp), %rax
	.loc	3 31 24 is_stmt 0       ## ParallelSum.c:31:24
	addq	$1, %rax
	.loc	3 31 17                 ## ParallelSum.c:31:17
	movq	-104(%rbp), %rcx
	.loc	3 31 9                  ## ParallelSum.c:31:9
	movq	-96(%rbp), %rdx
	.loc	3 31 20                 ## ParallelSum.c:31:20
	movq	%rax, (%rdx,%rcx,8)
Ltmp19:
## BB#3:                                ##   in Loop: Header=BB1_1 Depth=1
	.loc	3 30 34 is_stmt 1       ## ParallelSum.c:30:34
	movq	-104(%rbp), %rax
	addq	$1, %rax
	movq	%rax, -104(%rbp)
	.loc	3 30 2 is_stmt 0        ## ParallelSum.c:30:2
	jmp	LBB1_1
Ltmp20:
LBB1_4:
	movl	$192, %eax
	movl	%eax, %edi
	.loc	3 33 22 is_stmt 1       ## ParallelSum.c:33:22
	callq	_malloc
	.loc	3 33 15 is_stmt 0       ## ParallelSum.c:33:15
	movq	%rax, -112(%rbp)
	.loc	3 34 14 is_stmt 1       ## ParallelSum.c:34:14
Ltmp21:
	movq	$1, -120(%rbp)
LBB1_5:                                 ## =>This Loop Header: Depth=1
                                        ##     Child Loop BB1_7 Depth 2
                                        ##     Child Loop BB1_11 Depth 2
                                        ##     Child Loop BB1_15 Depth 2
                                        ##     Child Loop BB1_19 Depth 2
	.loc	3 34 23 is_stmt 0       ## ParallelSum.c:34:23
Ltmp22:
	cmpq	$10, -120(%rbp)
Ltmp23:
	.loc	3 34 2                  ## ParallelSum.c:34:2
	ja	LBB1_24
## BB#6:                                ##   in Loop: Header=BB1_5 Depth=1
	.loc	3 35 15 is_stmt 1       ## ParallelSum.c:35:15
Ltmp24:
	movq	$0, -128(%rbp)
LBB1_7:                                 ##   Parent Loop BB1_5 Depth=1
                                        ## =>  This Inner Loop Header: Depth=2
	.loc	3 35 24 is_stmt 0       ## ParallelSum.c:35:24
Ltmp25:
	cmpq	$8, -128(%rbp)
Ltmp26:
	.loc	3 35 3                  ## ParallelSum.c:35:3
	jae	LBB1_10
## BB#8:                                ##   in Loop: Header=BB1_7 Depth=2
	.loc	3 36 10 is_stmt 1       ## ParallelSum.c:36:10
Ltmp27:
	movq	-128(%rbp), %rax
	.loc	3 36 5 is_stmt 0        ## ParallelSum.c:36:5
	imulq	$24, %rax, %rax
	addq	-112(%rbp), %rax
	.loc	3 37 27 is_stmt 1       ## ParallelSum.c:37:27
	movq	-128(%rbp), %rcx
	.loc	3 36 29                 ## ParallelSum.c:36:29
	movq	%rcx, -152(%rbp)
	.loc	3 38 27                 ## ParallelSum.c:38:27
	movq	-96(%rbp), %rcx
	.loc	3 36 29                 ## ParallelSum.c:36:29
	movq	%rcx, -144(%rbp)
	movq	$0, -136(%rbp)
	.loc	3 36 15 is_stmt 0       ## ParallelSum.c:36:15
	movq	-152(%rbp), %rcx
	movq	%rcx, (%rax)
	movq	-144(%rbp), %rcx
	movq	%rcx, 8(%rax)
	movq	-136(%rbp), %rcx
	movq	%rcx, 16(%rax)
Ltmp28:
## BB#9:                                ##   in Loop: Header=BB1_7 Depth=2
	.loc	3 35 37 is_stmt 1       ## ParallelSum.c:35:37
	movq	-128(%rbp), %rax
	addq	$1, %rax
	movq	%rax, -128(%rbp)
	.loc	3 35 3 is_stmt 0        ## ParallelSum.c:35:3
	jmp	LBB1_7
Ltmp29:
LBB1_10:                                ##   in Loop: Header=BB1_5 Depth=1
	.loc	3 44 15 is_stmt 1       ## ParallelSum.c:44:15
	movq	$0, -160(%rbp)
LBB1_11:                                ##   Parent Loop BB1_5 Depth=1
                                        ## =>  This Inner Loop Header: Depth=2
	.loc	3 44 24 is_stmt 0       ## ParallelSum.c:44:24
Ltmp30:
	cmpq	$8, -160(%rbp)
Ltmp31:
	.loc	3 44 3                  ## ParallelSum.c:44:3
	jae	LBB1_14
## BB#12:                               ##   in Loop: Header=BB1_11 Depth=2
	xorl	%eax, %eax
	movl	%eax, %esi
	leaq	_worker(%rip), %rdx
	leaq	-80(%rbp), %rcx
	.loc	3 45 32 is_stmt 1       ## ParallelSum.c:45:32
Ltmp32:
	movq	-160(%rbp), %rdi
	.loc	3 45 30 is_stmt 0       ## ParallelSum.c:45:30
	shlq	$3, %rdi
	addq	%rdi, %rcx
	.loc	3 45 49                 ## ParallelSum.c:45:49
	movq	-112(%rbp), %rdi
	.loc	3 45 54                 ## ParallelSum.c:45:54
	imulq	$24, -160(%rbp), %r8
	addq	%r8, %rdi
	.loc	3 45 4                  ## ParallelSum.c:45:4
	movq	%rdi, -192(%rbp)        ## 8-byte Spill
	movq	%rcx, %rdi
	movq	-192(%rbp), %rcx        ## 8-byte Reload
	callq	_pthread_create
	movl	%eax, -196(%rbp)        ## 4-byte Spill
Ltmp33:
## BB#13:                               ##   in Loop: Header=BB1_11 Depth=2
	.loc	3 44 37 is_stmt 1       ## ParallelSum.c:44:37
	movq	-160(%rbp), %rax
	addq	$1, %rax
	movq	%rax, -160(%rbp)
	.loc	3 44 3 is_stmt 0        ## ParallelSum.c:44:3
	jmp	LBB1_11
Ltmp34:
LBB1_14:                                ##   in Loop: Header=BB1_5 Depth=1
	.loc	3 48 15 is_stmt 1       ## ParallelSum.c:48:15
	movq	$0, -168(%rbp)
LBB1_15:                                ##   Parent Loop BB1_5 Depth=1
                                        ## =>  This Inner Loop Header: Depth=2
	.loc	3 48 24 is_stmt 0       ## ParallelSum.c:48:24
Ltmp35:
	cmpq	$8, -168(%rbp)
Ltmp36:
	.loc	3 48 3                  ## ParallelSum.c:48:3
	jae	LBB1_18
## BB#16:                               ##   in Loop: Header=BB1_15 Depth=2
	xorl	%eax, %eax
	movl	%eax, %esi
	.loc	3 49 28 is_stmt 1       ## ParallelSum.c:49:28
Ltmp37:
	movq	-168(%rbp), %rcx
	.loc	3 49 17 is_stmt 0       ## ParallelSum.c:49:17
	movq	-80(%rbp,%rcx,8), %rdi
	.loc	3 49 4                  ## ParallelSum.c:49:4
	callq	_pthread_join
	movl	%eax, -200(%rbp)        ## 4-byte Spill
Ltmp38:
## BB#17:                               ##   in Loop: Header=BB1_15 Depth=2
	.loc	3 48 37 is_stmt 1       ## ParallelSum.c:48:37
	movq	-168(%rbp), %rax
	addq	$1, %rax
	movq	%rax, -168(%rbp)
	.loc	3 48 3 is_stmt 0        ## ParallelSum.c:48:3
	jmp	LBB1_15
Ltmp39:
LBB1_18:                                ##   in Loop: Header=BB1_5 Depth=1
	.loc	3 52 8 is_stmt 1        ## ParallelSum.c:52:8
	movq	$0, -176(%rbp)
	.loc	3 54 15                 ## ParallelSum.c:54:15
Ltmp40:
	movq	$0, -184(%rbp)
LBB1_19:                                ##   Parent Loop BB1_5 Depth=1
                                        ## =>  This Inner Loop Header: Depth=2
	.loc	3 54 24 is_stmt 0       ## ParallelSum.c:54:24
Ltmp41:
	cmpq	$8, -184(%rbp)
Ltmp42:
	.loc	3 54 3                  ## ParallelSum.c:54:3
	jae	LBB1_22
## BB#20:                               ##   in Loop: Header=BB1_19 Depth=2
	.loc	3 55 16 is_stmt 1       ## ParallelSum.c:55:16
Ltmp43:
	movq	-184(%rbp), %rax
	.loc	3 55 11 is_stmt 0       ## ParallelSum.c:55:11
	imulq	$24, %rax, %rax
	addq	-112(%rbp), %rax
	.loc	3 55 19                 ## ParallelSum.c:55:19
	movq	16(%rax), %rax
	.loc	3 55 8                  ## ParallelSum.c:55:8
	addq	-176(%rbp), %rax
	movq	%rax, -176(%rbp)
Ltmp44:
## BB#21:                               ##   in Loop: Header=BB1_19 Depth=2
	.loc	3 54 37 is_stmt 1       ## ParallelSum.c:54:37
	movq	-184(%rbp), %rax
	addq	$1, %rax
	movq	%rax, -184(%rbp)
	.loc	3 54 3 is_stmt 0        ## ParallelSum.c:54:3
	jmp	LBB1_19
Ltmp45:
LBB1_22:                                ##   in Loop: Header=BB1_5 Depth=1
	leaq	L_.str(%rip), %rdi
	.loc	3 57 42 is_stmt 1       ## ParallelSum.c:57:42
	movq	-120(%rbp), %rsi
	.loc	3 57 45 is_stmt 0       ## ParallelSum.c:57:45
	movq	-176(%rbp), %rdx
	.loc	3 57 3                  ## ParallelSum.c:57:3
	movb	$0, %al
	callq	_printf
	movl	%eax, -204(%rbp)        ## 4-byte Spill
Ltmp46:
## BB#23:                               ##   in Loop: Header=BB1_5 Depth=1
	.loc	3 34 37 is_stmt 1       ## ParallelSum.c:34:37
	movq	-120(%rbp), %rax
	addq	$1, %rax
	movq	%rax, -120(%rbp)
	.loc	3 34 2 is_stmt 0        ## ParallelSum.c:34:2
	jmp	LBB1_5
Ltmp47:
LBB1_24:
	.loc	3 60 7 is_stmt 1        ## ParallelSum.c:60:7
	movq	-112(%rbp), %rax
	.loc	3 60 2 is_stmt 0        ## ParallelSum.c:60:2
	movq	%rax, %rdi
	callq	_free
	.loc	3 61 10 is_stmt 1       ## ParallelSum.c:61:10
	movq	-96(%rbp), %rax
	.loc	3 61 5 is_stmt 0        ## ParallelSum.c:61:5
	movq	%rax, %rdi
	callq	_free
	movq	___stack_chk_guard@GOTPCREL(%rip), %rax
	.loc	3 62 1 is_stmt 1        ## ParallelSum.c:62:1
	movl	-84(%rbp), %ecx
	movq	(%rax), %rax
	cmpq	-8(%rbp), %rax
	movl	%ecx, -208(%rbp)        ## 4-byte Spill
	jne	LBB1_26
## BB#25:
	movl	-208(%rbp), %eax        ## 4-byte Reload
	addq	$208, %rsp
	popq	%rbp
	retq
Ltmp48:
LBB1_26:
	callq	___stack_chk_fail
Lfunc_end1:
	.cfi_endproc

	.section	__TEXT,__cstring,cstring_literals
L_.str:                                 ## @.str
	.asciz	"Run %2zu: total sum is %ld\n"

	.file	4 "/Applications/Xcode.app/Contents/Developer/Platforms/MacOSX.platform/Developer/SDKs/MacOSX10.12.sdk/usr/include/sys/_pthread" "_pthread_types.h"
	.file	5 "/Applications/Xcode.app/Contents/Developer/Platforms/MacOSX.platform/Developer/SDKs/MacOSX10.12.sdk/usr/include/sys/_pthread" "_pthread_t.h"